; ModuleID = '31/112.cpp'
source_filename = "31/112.cpp"
target datalayout = "e-m:e-p270:32:32-p271:32:32-p272:64:64-i64:64-f80:128-n8:16:32:64-S128"
target triple = "x86_64-pc-linux-gnu"

%"class.std::ios_base::Init" = type { i8 }
%"class.std::basic_ostream" = type { i32 (...)**, %"class.std::basic_ios" }
%"class.std::basic_ios" = type { %"class.std::ios_base", %"class.std::basic_ostream"*, i8, i8, %"class.std::basic_streambuf"*, %"class.std::ctype"*, %"class.std::num_put"*, %"class.std::num_get"* }
%"class.std::ios_base" = type { i32 (...)**, i64, i64, i32, i32, i32, %"struct.std::ios_base::_Callback_list"*, %"struct.std::ios_base::_Words", [8 x %"struct.std::ios_base::_Words"], i32, %"struct.std::ios_base::_Words"*, %"class.std::locale" }
%"struct.std::ios_base::_Callback_list" = type { %"struct.std::ios_base::_Callback_list"*, void (i32, %"class.std::ios_base"*, i32)*, i32, i32 }
%"struct.std::ios_base::_Words" = type { i8*, i64 }
%"class.std::locale" = type { %"class.std::locale::_Impl"* }
%"class.std::locale::_Impl" = type { i32, %"class.std::locale::facet"**, i64, %"class.std::locale::facet"**, i8** }
%"class.std::locale::facet" = type <{ i32 (...)**, i32, [4 x i8] }>
%"class.std::basic_streambuf" = type { i32 (...)**, i8*, i8*, i8*, i8*, i8*, i8*, %"class.std::locale" }
%"class.std::ctype" = type <{ %"class.std::locale::facet.base", [4 x i8], %struct.__locale_struct*, i8, [7 x i8], i32*, i32*, i16*, i8, [256 x i8], [256 x i8], i8, [6 x i8] }>
%"class.std::locale::facet.base" = type <{ i32 (...)**, i32 }>
%struct.__locale_struct = type { [13 x %struct.__locale_data*], i16*, i32*, i32*, [13 x i8*] }
%struct.__locale_data = type opaque
%"class.std::num_put" = type { %"class.std::locale::facet.base", [4 x i8] }
%"class.std::num_get" = type { %"class.std::locale::facet.base", [4 x i8] }
%"class.std::basic_istream" = type { i32 (...)**, i64, %"class.std::basic_ios" }
%struct.aa = type { [100 x i8], %struct.aa* }

@_ZStL8__ioinit = internal global %"class.std::ios_base::Init" zeroinitializer, align 1
@__dso_handle = external hidden global i8
@_ZSt4cout = external dso_local global %"class.std::basic_ostream", align 8
@_ZSt3cin = external dso_local global %"class.std::basic_istream", align 8
@.str = private unnamed_addr constant [4 x i8] c"end\00", align 1
@llvm.global_ctors = appending global [1 x { i32, void ()*, i8* }] [{ i32, void ()*, i8* } { i32 65535, void ()* @_GLOBAL__sub_I_112.cpp, i8* null }]

; Function Attrs: noinline uwtable
define internal void @__cxx_global_var_init() #0 section ".text.startup" {
  call void @_ZNSt8ios_base4InitC1Ev(%"class.std::ios_base::Init"* @_ZStL8__ioinit)
  %1 = call i32 @__cxa_atexit(void (i8*)* bitcast (void (%"class.std::ios_base::Init"*)* @_ZNSt8ios_base4InitD1Ev to void (i8*)*), i8* getelementptr inbounds (%"class.std::ios_base::Init", %"class.std::ios_base::Init"* @_ZStL8__ioinit, i32 0, i32 0), i8* @__dso_handle) #3
  ret void
}

declare dso_local void @_ZNSt8ios_base4InitC1Ev(%"class.std::ios_base::Init"*) unnamed_addr #1

; Function Attrs: nounwind
declare dso_local void @_ZNSt8ios_base4InitD1Ev(%"class.std::ios_base::Init"*) unnamed_addr #2

; Function Attrs: nounwind
declare dso_local i32 @__cxa_atexit(void (i8*)*, i8*, i8*) #3

; Function Attrs: noinline uwtable
define dso_local void @_Z5printP2aa(%struct.aa* %0) #0 {
  %2 = alloca %struct.aa*, align 8
  store %struct.aa* %0, %struct.aa** %2, align 8
  %3 = load %struct.aa*, %struct.aa** %2, align 8
  %4 = getelementptr inbounds %struct.aa, %struct.aa* %3, i32 0, i32 1
  %5 = load %struct.aa*, %struct.aa** %4, align 8
  %6 = icmp ne %struct.aa* %5, null
  br i1 %6, label %7, label %11

7:                                                ; preds = %1
  %8 = load %struct.aa*, %struct.aa** %2, align 8
  %9 = getelementptr inbounds %struct.aa, %struct.aa* %8, i32 0, i32 1
  %10 = load %struct.aa*, %struct.aa** %9, align 8
  call void @_Z5printP2aa(%struct.aa* %10)
  br label %11

11:                                               ; preds = %7, %1
  %12 = load %struct.aa*, %struct.aa** %2, align 8
  %13 = getelementptr inbounds %struct.aa, %struct.aa* %12, i32 0, i32 0
  %14 = getelementptr inbounds [100 x i8], [100 x i8]* %13, i64 0, i64 0
  %15 = call dereferenceable(272) %"class.std::basic_ostream"* @_ZStlsISt11char_traitsIcEERSt13basic_ostreamIcT_ES5_PKc(%"class.std::basic_ostream"* dereferenceable(272) @_ZSt4cout, i8* %14)
  %16 = call dereferenceable(272) %"class.std::basic_ostream"* @_ZNSolsEPFRSoS_E(%"class.std::basic_ostream"* %15, %"class.std::basic_ostream"* (%"class.std::basic_ostream"*)* @_ZSt4endlIcSt11char_traitsIcEERSt13basic_ostreamIT_T0_ES6_)
  ret void
}

declare dso_local dereferenceable(272) %"class.std::basic_ostream"* @_ZStlsISt11char_traitsIcEERSt13basic_ostreamIcT_ES5_PKc(%"class.std::basic_ostream"* dereferenceable(272), i8*) #1

declare dso_local dereferenceable(272) %"class.std::basic_ostream"* @_ZNSolsEPFRSoS_E(%"class.std::basic_ostream"*, %"class.std::basic_ostream"* (%"class.std::basic_ostream"*)*) #1

declare dso_local dereferenceable(272) %"class.std::basic_ostream"* @_ZSt4endlIcSt11char_traitsIcEERSt13basic_ostreamIT_T0_ES6_(%"class.std::basic_ostream"* dereferenceable(272)) #1

; Function Attrs: noinline norecurse uwtable
define dso_local i32 @main() #4 {
  %1 = alloca i32, align 4
  %2 = alloca %struct.aa*, align 8
  %3 = alloca %struct.aa*, align 8
  %4 = alloca %struct.aa*, align 8
  %5 = alloca i32, align 4
  %6 = alloca [100 x i8], align 16
  store i32 0, i32* %1, align 4
  store i32 112, i32* %5, align 4
  %7 = load i32, i32* %5, align 4
  %8 = sext i32 %7 to i64
  %9 = call noalias i8* @malloc(i64 %8) #3
  %10 = bitcast i8* %9 to %struct.aa*
  store %struct.aa* %10, %struct.aa** %2, align 8
  %11 = load %struct.aa*, %struct.aa** %2, align 8
  store %struct.aa* %11, %struct.aa** %3, align 8
  %12 = load %struct.aa*, %struct.aa** %2, align 8
  store %struct.aa* %12, %struct.aa** %4, align 8
  br label %13

13:                                               ; preds = %46, %0
  %14 = getelementptr inbounds [100 x i8], [100 x i8]* %6, i64 0, i64 0
  %15 = call dereferenceable(280) %"class.std::basic_istream"* @_ZNSi7getlineEPcl(%"class.std::basic_istream"* @_ZSt3cin, i8* %14, i64 100)
  %16 = bitcast %"class.std::basic_istream"* %15 to i8**
  %17 = load i8*, i8** %16, align 8
  %18 = getelementptr i8, i8* %17, i64 -24
  %19 = bitcast i8* %18 to i64*
  %20 = load i64, i64* %19, align 8
  %21 = bitcast %"class.std::basic_istream"* %15 to i8*
  %22 = getelementptr inbounds i8, i8* %21, i64 %20
  %23 = bitcast i8* %22 to %"class.std::basic_ios"*
  %24 = call zeroext i1 @_ZNKSt9basic_iosIcSt11char_traitsIcEEcvbEv(%"class.std::basic_ios"* %23)
  br i1 %24, label %25, label %47

25:                                               ; preds = %13
  %26 = getelementptr inbounds [100 x i8], [100 x i8]* %6, i64 0, i64 0
  %27 = call i32 @strcmp(i8* %26, i8* getelementptr inbounds ([4 x i8], [4 x i8]* @.str, i64 0, i64 0)) #6
  %28 = icmp ne i32 %27, 0
  br i1 %28, label %29, label %45

29:                                               ; preds = %25
  %30 = load i32, i32* %5, align 4
  %31 = sext i32 %30 to i64
  %32 = call noalias i8* @malloc(i64 %31) #3
  %33 = bitcast i8* %32 to %struct.aa*
  store %struct.aa* %33, %struct.aa** %4, align 8
  %34 = load %struct.aa*, %struct.aa** %4, align 8
  %35 = load %struct.aa*, %struct.aa** %3, align 8
  %36 = getelementptr inbounds %struct.aa, %struct.aa* %35, i32 0, i32 1
  store %struct.aa* %34, %struct.aa** %36, align 8
  %37 = load %struct.aa*, %struct.aa** %4, align 8
  %38 = getelementptr inbounds %struct.aa, %struct.aa* %37, i32 0, i32 0
  %39 = getelementptr inbounds [100 x i8], [100 x i8]* %38, i64 0, i64 0
  %40 = getelementptr inbounds [100 x i8], [100 x i8]* %6, i64 0, i64 0
  %41 = call i8* @strcpy(i8* %39, i8* %40) #3
  %42 = load %struct.aa*, %struct.aa** %4, align 8
  %43 = getelementptr inbounds %struct.aa, %struct.aa* %42, i32 0, i32 1
  store %struct.aa* null, %struct.aa** %43, align 8
  %44 = load %struct.aa*, %struct.aa** %4, align 8
  store %struct.aa* %44, %struct.aa** %3, align 8
  br label %46

45:                                               ; preds = %25
  br label %47

46:                                               ; preds = %29
  br label %13

47:                                               ; preds = %45, %13
  %48 = load %struct.aa*, %struct.aa** %2, align 8
  %49 = getelementptr inbounds %struct.aa, %struct.aa* %48, i32 0, i32 1
  %50 = load %struct.aa*, %struct.aa** %49, align 8
  call void @_Z5printP2aa(%struct.aa* %50)
  ret i32 0
}

; Function Attrs: nounwind
declare dso_local noalias i8* @malloc(i64) #2

declare dso_local dereferenceable(280) %"class.std::basic_istream"* @_ZNSi7getlineEPcl(%"class.std::basic_istream"*, i8*, i64) #1

declare dso_local zeroext i1 @_ZNKSt9basic_iosIcSt11char_traitsIcEEcvbEv(%"class.std::basic_ios"*) #1

; Function Attrs: nounwind readonly
declare dso_local i32 @strcmp(i8*, i8*) #5

; Function Attrs: nounwind
declare dso_local i8* @strcpy(i8*, i8*) #2

; Function Attrs: noinline uwtable
define internal void @_GLOBAL__sub_I_112.cpp() #0 section ".text.startup" {
  call void @__cxx_global_var_init()
  ret void
}


!llvm.module.flags = !{!0}
!llvm.ident = !{!1}

!0 = !{i32 1, !"wchar_size", i32 4}
!1 = !{!"clang version 10.0.0-4ubuntu1 "}
